; Function Attrs: mustprogress nofree norecurse nosync nounwind willreturn memory(read, argmem: readwrite, inaccessiblemem: none) uwtable
define void @_ZN14duckdb_parquet11ColumnOrderC2ERKS0_(ptr noundef nonnull align 8 captures(none) dereferenceable(17) initializes((0, 16)) %0, ptr noundef readonly captures(none) %1, ptr noundef nonnull readonly align 8 captures(none) dereferenceable(17) %2) unnamed_addr #7 align 2 personality ptr @__gxx_personality_v0 {
  %4 = load ptr, ptr %1, align 8
  store ptr %4, ptr %0, align 8, !tbaa !22
  %5 = getelementptr inbounds nuw i8, ptr %1, i64 8
  %6 = load ptr, ptr %5, align 8
  %7 = getelementptr i8, ptr %4, i64 -48
  %8 = load i64, ptr %7, align 8
  %9 = getelementptr inbounds i8, ptr %0, i64 %8
  store ptr %6, ptr %9, align 8, !tbaa !22
  %10 = getelementptr inbounds nuw i8, ptr %0, i64 8
  store ptr getelementptr inbounds nuw inrange(-48, 40) (i8, ptr @_ZTVN14duckdb_parquet16TypeDefinedOrderE, i64 48), ptr %10, align 8, !tbaa !22
  %11 = getelementptr inbounds nuw i8, ptr %0, i64 16
  %12 = load i8, ptr %11, align 8
  %13 = and i8 %12, -2
  store i8 %13, ptr %11, align 8
  %14 = getelementptr inbounds nuw i8, ptr %2, i64 16
  %15 = load i8, ptr %14, align 8, !tbaa !38
  store i8 %15, ptr %11, align 8, !tbaa !38
  ret void
}